target datalayout = "e-m:e-p270:32:32-p271:32:32-p272:64:64-i64:64-i128:128-f80:128-n8:16:32:64-S128"
target triple = "x86_64-pc-linux-gnu"

%"class.g2o::VelocityMeasurement" = type { %"class.Eigen::Matrix", double, [8 x i8] }
%"class.Eigen::Matrix" = type { %"class.Eigen::PlainObjectBase" }
%"class.Eigen::PlainObjectBase" = type { %"class.Eigen::DenseStorage" }
%"class.Eigen::DenseStorage" = type { %"struct.Eigen::internal::plain_array" }
%"struct.Eigen::internal::plain_array" = type { [2 x double] }

; Function Attrs: mustprogress uwtable
define noundef zeroext i1 @_ZN3g2o28EdgeSE2OdomDifferentialCalib4readERSi(ptr noundef nonnull align 16 dereferenceable(456) %0, ptr noundef nonnull align 8 dereferenceable(16) %1) unnamed_addr #5 align 2 {
  %3 = alloca ptr, align 8
  %4 = alloca ptr, align 8
  %5 = alloca double, align 8
  %6 = alloca double, align 8
  %7 = alloca double, align 8
  %8 = alloca %"class.g2o::VelocityMeasurement", align 16
  store ptr %0, ptr %3, align 8
  store ptr %1, ptr %4, align 8
  %9 = load ptr, ptr %3, align 8
  %10 = load ptr, ptr %4, align 8
  %11 = call noundef nonnull align 8 dereferenceable(16) ptr @_ZNSirsERd(ptr noundef nonnull align 8 dereferenceable(16) %10, ptr noundef nonnull align 8 dereferenceable(8) %5)
  %12 = call noundef nonnull align 8 dereferenceable(16) ptr @_ZNSirsERd(ptr noundef nonnull align 8 dereferenceable(16) %11, ptr noundef nonnull align 8 dereferenceable(8) %6)
  %13 = call noundef nonnull align 8 dereferenceable(16) ptr @_ZNSirsERd(ptr noundef nonnull align 8 dereferenceable(16) %12, ptr noundef nonnull align 8 dereferenceable(8) %7)
  %14 = load double, ptr %5, align 8
  %15 = load double, ptr %6, align 8
  %16 = load double, ptr %7, align 8
  call void @_ZN3g2o19VelocityMeasurementC1Eddd(ptr noundef nonnull align 16 dereferenceable(24) %8, double noundef %14, double noundef %15, double noundef %16)
  %17 = load ptr, ptr %9, align 16
  %18 = getelementptr inbounds ptr, ptr %17, i64 26
  %19 = load ptr, ptr %18, align 8
  call void %19(ptr noundef nonnull align 16 dereferenceable(304) %9, ptr noundef nonnull align 16 dereferenceable(24) %8)
  %20 = load ptr, ptr %4, align 8
  %21 = call noundef zeroext i1 @_ZN3g2o8BaseEdgeILi3ENS_19VelocityMeasurementEE21readInformationMatrixERSi(ptr noundef nonnull align 16 dereferenceable(304) %9, ptr noundef nonnull align 8 dereferenceable(16) %20)
  ret i1 %21
}