; Function Attrs: mustprogress uwtable
define noundef zeroext i1 @_ZN3g2o28EdgeSE2OdomDifferentialCalib4readERSi(ptr noundef nonnull align 16 dereferenceable(456) %0, ptr noundef nonnull align 8 dereferenceable(16) %1) unnamed_addr #3 align 2 {
  %3 = alloca double, align 8
  %4 = alloca double, align 8
  %5 = alloca double, align 8
  %6 = alloca %"class.g2o::VelocityMeasurement", align 16
  %7 = call noundef nonnull align 8 dereferenceable(16) ptr @_ZNSirsERd(ptr noundef nonnull align 8 dereferenceable(16) %1, ptr noundef nonnull align 8 dereferenceable(8) %3)
  %8 = call noundef nonnull align 8 dereferenceable(16) ptr @_ZNSirsERd(ptr noundef nonnull align 8 dereferenceable(16) %7, ptr noundef nonnull align 8 dereferenceable(8) %4)
  %9 = call noundef nonnull align 8 dereferenceable(16) ptr @_ZNSirsERd(ptr noundef nonnull align 8 dereferenceable(16) %8, ptr noundef nonnull align 8 dereferenceable(8) %5)
  %10 = load double, ptr %3, align 8
  %11 = load double, ptr %4, align 8
  %12 = load double, ptr %5, align 8
  call void @_ZN3g2o19VelocityMeasurementC1Eddd(ptr noundef nonnull align 16 dereferenceable(24) %6, double noundef %10, double noundef %11, double noundef %12)
  %13 = load ptr, ptr %0, align 16
  %14 = getelementptr inbounds i8, ptr %13, i64 208
  %15 = load ptr, ptr %14, align 8
  call void %15(ptr noundef nonnull align 16 dereferenceable(304) %0, ptr noundef nonnull align 16 dereferenceable(24) %6)
  %16 = call noundef zeroext i1 @_ZN3g2o8BaseEdgeILi3ENS_19VelocityMeasurementEE21readInformationMatrixERSi(ptr noundef nonnull align 16 dereferenceable(304) %0, ptr noundef nonnull align 8 dereferenceable(16) %1)
  ret i1 %16
}